target datalayout = "e-m:e-p270:32:32-p271:32:32-p272:64:64-i64:64-i128:128-f80:128-n8:16:32:64-S128"
target triple = "x86_64-pc-linux-gnu"

%struct._generic_ARKInterp = type { ptr, ptr }
%struct.ARKodeMemRec = type { ptr, double, ptr, i32, i32, double, double, ptr, i32, double, ptr, i32, i32, ptr, ptr, i32, ptr, ptr, i32, ptr, ptr, ptr, ptr, ptr, ptr, ptr, ptr, ptr, ptr, ptr, ptr, ptr, ptr, ptr, i32, ptr, ptr, i32, ptr, i32, ptr, ptr, ptr, ptr, ptr, ptr, ptr, ptr, ptr, ptr, ptr, ptr, ptr, ptr, ptr, ptr, ptr, ptr, ptr, ptr, ptr, ptr, ptr, ptr, ptr, ptr, i32, ptr, ptr, ptr, ptr, ptr, ptr, ptr, i32, ptr, ptr, ptr, i32, ptr, ptr, ptr, ptr, ptr, ptr, ptr, i32, i32, i32, i32, double, double, double, double, double, double, double, double, double, double, i32, ptr, i64, i32, i32, i32, i32, i64, i64, i32, i64, i64, i64, i64, i64, i64, i64, double, double, double, double, double, i32, double, double, i32, i32, i32, i32, i32, i32, i32, i32, ptr, i32, ptr, ptr, ptr, ptr, i32, i32, i32 }
%struct._ARKInterpContent_Lagrange = type { i32, i32, ptr, ptr, i32, double }

; Function Attrs: nounwind uwtable
define i32 @arkInterpUpdate_Lagrange(ptr noundef %0, ptr noundef %1, double noundef %2) #0 {
  %4 = alloca i32, align 4
  %5 = alloca ptr, align 8
  %6 = alloca ptr, align 8
  %7 = alloca double, align 8
  %8 = alloca i32, align 4
  %9 = alloca double, align 8
  %10 = alloca ptr, align 8
  %11 = alloca i32, align 4
  %12 = alloca i32, align 4
  %13 = alloca ptr, align 8
  %14 = alloca ptr, align 8
  %15 = alloca i32, align 4
  store ptr %0, ptr %5, align 8, !tbaa !3
  store ptr %1, ptr %6, align 8, !tbaa !8
  store double %2, ptr %7, align 8, !tbaa !27
  call void @llvm.lifetime.start.p0(i64 4, ptr %8) #7
  call void @llvm.lifetime.start.p0(i64 8, ptr %9) #7
  call void @llvm.lifetime.start.p0(i64 8, ptr %10) #7
  call void @llvm.lifetime.start.p0(i64 4, ptr %11) #7
  call void @llvm.lifetime.start.p0(i64 4, ptr %12) #7
  call void @llvm.lifetime.start.p0(i64 8, ptr %13) #7
  call void @llvm.lifetime.start.p0(i64 8, ptr %14) #7
  %16 = load ptr, ptr %6, align 8, !tbaa !8
  %17 = getelementptr inbounds nuw %struct._generic_ARKInterp, ptr %16, i32 0, i32 0
  %18 = load ptr, ptr %17, align 8, !tbaa !35
  %19 = getelementptr inbounds nuw %struct._ARKInterpContent_Lagrange, ptr %18, i32 0, i32 4
  %20 = load i32, ptr %19, align 8, !tbaa !67
  store i32 %20, ptr %11, align 4, !tbaa !24
  %21 = load ptr, ptr %6, align 8, !tbaa !8
  %22 = getelementptr inbounds nuw %struct._generic_ARKInterp, ptr %21, i32 0, i32 0
  %23 = load ptr, ptr %22, align 8, !tbaa !35
  %24 = getelementptr inbounds nuw %struct._ARKInterpContent_Lagrange, ptr %23, i32 0, i32 0
  %25 = load i32, ptr %24, align 8, !tbaa !62
  store i32 %25, ptr %12, align 4, !tbaa !24
  %26 = load ptr, ptr %6, align 8, !tbaa !8
  %27 = getelementptr inbounds nuw %struct._generic_ARKInterp, ptr %26, i32 0, i32 0
  %28 = load ptr, ptr %27, align 8, !tbaa !35
  %29 = getelementptr inbounds nuw %struct._ARKInterpContent_Lagrange, ptr %28, i32 0, i32 3
  %30 = load ptr, ptr %29, align 8, !tbaa !68
  store ptr %30, ptr %13, align 8, !tbaa !72
  %31 = load ptr, ptr %6, align 8, !tbaa !8
  %32 = getelementptr inbounds nuw %struct._generic_ARKInterp, ptr %31, i32 0, i32 0
  %33 = load ptr, ptr %32, align 8, !tbaa !35
  %34 = getelementptr inbounds nuw %struct._ARKInterpContent_Lagrange, ptr %33, i32 0, i32 2
  %35 = load ptr, ptr %34, align 8, !tbaa !69
  store ptr %35, ptr %14, align 8, !tbaa !73
  %36 = load ptr, ptr %5, align 8, !tbaa !3
  %37 = getelementptr inbounds nuw %struct.ARKodeMemRec, ptr %36, i32 0, i32 1
  %38 = load double, ptr %37, align 8, !tbaa !70
  %39 = fmul double 1.000000e+02, %38
  %40 = load ptr, ptr %5, align 8, !tbaa !3
  %41 = getelementptr inbounds nuw %struct.ARKodeMemRec, ptr %40, i32 0, i32 98
  %42 = load double, ptr %41, align 8, !tbaa !49
  %43 = call double @llvm.fabs.f64(double %42)
  %44 = load ptr, ptr %5, align 8, !tbaa !3
  %45 = getelementptr inbounds nuw %struct.ARKodeMemRec, ptr %44, i32 0, i32 92
  %46 = load double, ptr %45, align 8, !tbaa !59
  %47 = call double @llvm.fabs.f64(double %46)
  %48 = fadd double %43, %47
  %49 = fmul double %39, %48
  %50 = load ptr, ptr %6, align 8, !tbaa !8
  %51 = getelementptr inbounds nuw %struct._generic_ARKInterp, ptr %50, i32 0, i32 0
  %52 = load ptr, ptr %51, align 8, !tbaa !35
  %53 = getelementptr inbounds nuw %struct._ARKInterpContent_Lagrange, ptr %52, i32 0, i32 5
  store double %49, ptr %53, align 8, !tbaa !71
  %54 = load double, ptr %7, align 8, !tbaa !27
  %55 = load ptr, ptr %13, align 8, !tbaa !72
  %56 = getelementptr inbounds double, ptr %55, i64 0
  %57 = load double, ptr %56, align 8, !tbaa !27
  %58 = fsub double %54, %57
  %59 = call double @llvm.fabs.f64(double %58)
  store double %59, ptr %9, align 8, !tbaa !27
  store i32 1, ptr %8, align 4, !tbaa !24
  br label %60

60:                                               ; preds = %88, %3
  %61 = load i32, ptr %8, align 4, !tbaa !24
  %62 = load i32, ptr %11, align 4, !tbaa !24
  %63 = icmp slt i32 %61, %62
  br i1 %63, label %64, label %91

64:                                               ; preds = %60
  %65 = load double, ptr %9, align 8, !tbaa !27
  %66 = load double, ptr %7, align 8, !tbaa !27
  %67 = load ptr, ptr %13, align 8, !tbaa !72
  %68 = load i32, ptr %8, align 4, !tbaa !24
  %69 = sext i32 %68 to i64
  %70 = getelementptr inbounds double, ptr %67, i64 %69
  %71 = load double, ptr %70, align 8, !tbaa !27
  %72 = fsub double %66, %71
  %73 = call double @llvm.fabs.f64(double %72)
  %74 = fcmp olt double %65, %73
  br i1 %74, label %75, label %77

75:                                               ; preds = %64
  %76 = load double, ptr %9, align 8, !tbaa !27
  br label %86

77:                                               ; preds = %64
  %78 = load double, ptr %7, align 8, !tbaa !27
  %79 = load ptr, ptr %13, align 8, !tbaa !72
  %80 = load i32, ptr %8, align 4, !tbaa !24
  %81 = sext i32 %80 to i64
  %82 = getelementptr inbounds double, ptr %79, i64 %81
  %83 = load double, ptr %82, align 8, !tbaa !27
  %84 = fsub double %78, %83
  %85 = call double @llvm.fabs.f64(double %84)
  br label %86

86:                                               ; preds = %77, %75
  %87 = phi double [ %76, %75 ], [ %85, %77 ]
  store double %87, ptr %9, align 8, !tbaa !27
  br label %88

88:                                               ; preds = %86
  %89 = load i32, ptr %8, align 4, !tbaa !24
  %90 = add nsw i32 %89, 1
  store i32 %90, ptr %8, align 4, !tbaa !24
  br label %60

91:                                               ; preds = %60
  %92 = load double, ptr %9, align 8, !tbaa !27
  %93 = load ptr, ptr %6, align 8, !tbaa !8
  %94 = getelementptr inbounds nuw %struct._generic_ARKInterp, ptr %93, i32 0, i32 0
  %95 = load ptr, ptr %94, align 8, !tbaa !35
  %96 = getelementptr inbounds nuw %struct._ARKInterpContent_Lagrange, ptr %95, i32 0, i32 5
  %97 = load double, ptr %96, align 8, !tbaa !71
  %98 = fcmp ole double %92, %97
  br i1 %98, label %99, label %100

99:                                               ; preds = %91
  store i32 0, ptr %4, align 4
  store i32 1, ptr %15, align 4
  br label %164

100:                                              ; preds = %91
  %101 = load ptr, ptr %14, align 8, !tbaa !73
  %102 = load i32, ptr %12, align 4, !tbaa !24
  %103 = sub nsw i32 %102, 1
  %104 = sext i32 %103 to i64
  %105 = getelementptr inbounds ptr, ptr %101, i64 %104
  %106 = load ptr, ptr %105, align 8, !tbaa !13
  store ptr %106, ptr %10, align 8, !tbaa !13
  %107 = load i32, ptr %12, align 4, !tbaa !24
  %108 = sub nsw i32 %107, 1
  store i32 %108, ptr %8, align 4, !tbaa !24
  br label %109

109:                                              ; preds = %133, %100
  %110 = load i32, ptr %8, align 4, !tbaa !24
  %111 = icmp sgt i32 %110, 0
  br i1 %111, label %112, label %136

112:                                              ; preds = %109
  %113 = load ptr, ptr %13, align 8, !tbaa !72
  %114 = load i32, ptr %8, align 4, !tbaa !24
  %115 = sub nsw i32 %114, 1
  %116 = sext i32 %115 to i64
  %117 = getelementptr inbounds double, ptr %113, i64 %116
  %118 = load double, ptr %117, align 8, !tbaa !27
  %119 = load ptr, ptr %13, align 8, !tbaa !72
  %120 = load i32, ptr %8, align 4, !tbaa !24
  %121 = sext i32 %120 to i64
  %122 = getelementptr inbounds double, ptr %119, i64 %121
  store double %118, ptr %122, align 8, !tbaa !27
  %123 = load ptr, ptr %14, align 8, !tbaa !73
  %124 = load i32, ptr %8, align 4, !tbaa !24
  %125 = sub nsw i32 %124, 1
  %126 = sext i32 %125 to i64
  %127 = getelementptr inbounds ptr, ptr %123, i64 %126
  %128 = load ptr, ptr %127, align 8, !tbaa !13
  %129 = load ptr, ptr %14, align 8, !tbaa !73
  %130 = load i32, ptr %8, align 4, !tbaa !24
  %131 = sext i32 %130 to i64
  %132 = getelementptr inbounds ptr, ptr %129, i64 %131
  store ptr %128, ptr %132, align 8, !tbaa !13
  br label %133

133:                                              ; preds = %112
  %134 = load i32, ptr %8, align 4, !tbaa !24
  %135 = add nsw i32 %134, -1
  store i32 %135, ptr %8, align 4, !tbaa !24
  br label %109

136:                                              ; preds = %109
  %137 = load ptr, ptr %10, align 8, !tbaa !13
  %138 = load ptr, ptr %14, align 8, !tbaa !73
  %139 = getelementptr inbounds ptr, ptr %138, i64 0
  store ptr %137, ptr %139, align 8, !tbaa !13
  %140 = load double, ptr %7, align 8, !tbaa !27
  %141 = load ptr, ptr %13, align 8, !tbaa !72
  %142 = getelementptr inbounds double, ptr %141, i64 0
  store double %140, ptr %142, align 8, !tbaa !27
  %143 = load ptr, ptr %5, align 8, !tbaa !3
  %144 = getelementptr inbounds nuw %struct.ARKodeMemRec, ptr %143, i32 0, i32 75
  %145 = load ptr, ptr %144, align 8, !tbaa !74
  %146 = load ptr, ptr %14, align 8, !tbaa !73
  %147 = getelementptr inbounds ptr, ptr %146, i64 0
  %148 = load ptr, ptr %147, align 8, !tbaa !13
  call void @N_VScale(double noundef 1.000000e+00, ptr noundef %145, ptr noundef %148)
  %149 = load i32, ptr %11, align 4, !tbaa !24
  %150 = add nsw i32 %149, 1
  %151 = load i32, ptr %12, align 4, !tbaa !24
  %152 = icmp slt i32 %150, %151
  br i1 %152, label %153, label %156

153:                                              ; preds = %136
  %154 = load i32, ptr %11, align 4, !tbaa !24
  %155 = add nsw i32 %154, 1
  br label %158

156:                                              ; preds = %136
  %157 = load i32, ptr %12, align 4, !tbaa !24
  br label %158

158:                                              ; preds = %156, %153
  %159 = phi i32 [ %155, %153 ], [ %157, %156 ]
  store i32 %159, ptr %11, align 4, !tbaa !24
  %160 = load ptr, ptr %6, align 8, !tbaa !8
  %161 = getelementptr inbounds nuw %struct._generic_ARKInterp, ptr %160, i32 0, i32 0
  %162 = load ptr, ptr %161, align 8, !tbaa !35
  %163 = getelementptr inbounds nuw %struct._ARKInterpContent_Lagrange, ptr %162, i32 0, i32 4
  store i32 %159, ptr %163, align 8, !tbaa !67
  store i32 0, ptr %4, align 4
  store i32 1, ptr %15, align 4
  br label %164

164:                                              ; preds = %158, %99
  call void @llvm.lifetime.end.p0(i64 8, ptr %14) #7
  call void @llvm.lifetime.end.p0(i64 8, ptr %13) #7
  call void @llvm.lifetime.end.p0(i64 4, ptr %12) #7
  call void @llvm.lifetime.end.p0(i64 4, ptr %11) #7
  call void @llvm.lifetime.end.p0(i64 8, ptr %10) #7
  call void @llvm.lifetime.end.p0(i64 8, ptr %9) #7
  call void @llvm.lifetime.end.p0(i64 4, ptr %8) #7
  %165 = load i32, ptr %4, align 4
  ret i32 %165
}