; Function Attrs: nounwind uwtable
define noundef i32 @arkInterpUpdate_Lagrange(ptr noundef readonly captures(none) %0, ptr noundef readonly captures(none) %1, double noundef %2) #0 {
  %4 = load ptr, ptr %1, align 8, !tbaa !17
  %5 = getelementptr inbounds nuw i8, ptr %4, i64 24
  %6 = load i32, ptr %5, align 8, !tbaa !57
  %7 = load i32, ptr %4, align 8, !tbaa !49
  %8 = getelementptr inbounds nuw i8, ptr %4, i64 16
  %9 = load ptr, ptr %8, align 8, !tbaa !58
  %10 = getelementptr inbounds nuw i8, ptr %4, i64 8
  %11 = load ptr, ptr %10, align 8, !tbaa !55
  %12 = getelementptr inbounds nuw i8, ptr %0, i64 8
  %13 = load double, ptr %12, align 8, !tbaa !53
  %14 = fmul double %13, 1.000000e+02
  %15 = getelementptr inbounds nuw i8, ptr %0, i64 752
  %16 = load double, ptr %15, align 8, !tbaa !32
  %17 = tail call double @llvm.fabs.f64(double %16)
  %18 = getelementptr inbounds nuw i8, ptr %0, i64 704
  %19 = load double, ptr %18, align 8, !tbaa !46
  %20 = tail call double @llvm.fabs.f64(double %19)
  %21 = fadd double %17, %20
  %22 = fmul double %14, %21
  %23 = getelementptr inbounds nuw i8, ptr %4, i64 32
  store double %22, ptr %23, align 8, !tbaa !54
  %24 = load double, ptr %9, align 8, !tbaa !47
  %25 = fsub double %2, %24
  %26 = tail call double @llvm.fabs.f64(double %25)
  %27 = icmp sgt i32 %6, 1
  br i1 %27, label %.lr.ph.preheader, label %._crit_edge

.lr.ph.preheader:                                 ; preds = %3
  %wide.trip.count = zext nneg i32 %6 to i64
  br label %.lr.ph

.lr.ph:                                           ; preds = %.lr.ph.preheader, %.lr.ph
  %indvars.iv = phi i64 [ 1, %.lr.ph.preheader ], [ %indvars.iv.next, %.lr.ph ]
  %.04850 = phi double [ %26, %.lr.ph.preheader ], [ %.048., %.lr.ph ]
  %28 = getelementptr inbounds nuw double, ptr %9, i64 %indvars.iv
  %29 = load double, ptr %28, align 8, !tbaa !47
  %30 = fsub double %2, %29
  %31 = tail call double @llvm.fabs.f64(double %30)
  %32 = fcmp olt double %.04850, %31
  %.048. = select i1 %32, double %.04850, double %31
  %indvars.iv.next = add nuw nsw i64 %indvars.iv, 1
  %exitcond.not = icmp eq i64 %indvars.iv.next, %wide.trip.count
  br i1 %exitcond.not, label %._crit_edge, label %.lr.ph

._crit_edge:                                      ; preds = %.lr.ph, %3
  %.048.lcssa = phi double [ %26, %3 ], [ %.048., %.lr.ph ]
  %33 = fcmp ugt double %.048.lcssa, %22
  br i1 %33, label %34, label %54

34:                                               ; preds = %._crit_edge
  %35 = add nsw i32 %7, -1
  %36 = sext i32 %35 to i64
  %37 = getelementptr inbounds ptr, ptr %11, i64 %36
  %38 = load ptr, ptr %37, align 8, !tbaa !48
  %39 = icmp sgt i32 %7, 1
  br i1 %39, label %.lr.ph54.preheader, label %._crit_edge55

.lr.ph54.preheader:                               ; preds = %34
  %40 = zext nneg i32 %35 to i64
  br label %.lr.ph54

.lr.ph54:                                         ; preds = %.lr.ph54.preheader, %.lr.ph54
  %indvars.iv57 = phi i64 [ %40, %.lr.ph54.preheader ], [ %indvars.iv.next58, %.lr.ph54 ]
  %indvars.iv.next58 = add nsw i64 %indvars.iv57, -1
  %41 = getelementptr inbounds nuw double, ptr %9, i64 %indvars.iv.next58
  %42 = load double, ptr %41, align 8, !tbaa !47
  %43 = getelementptr inbounds nuw double, ptr %9, i64 %indvars.iv57
  store double %42, ptr %43, align 8, !tbaa !47
  %44 = getelementptr inbounds nuw ptr, ptr %11, i64 %indvars.iv.next58
  %45 = load ptr, ptr %44, align 8, !tbaa !48
  %46 = getelementptr inbounds nuw ptr, ptr %11, i64 %indvars.iv57
  store ptr %45, ptr %46, align 8, !tbaa !48
  %47 = icmp samesign ugt i64 %indvars.iv57, 1
  br i1 %47, label %.lr.ph54, label %._crit_edge55

._crit_edge55:                                    ; preds = %.lr.ph54, %34
  store ptr %38, ptr %11, align 8, !tbaa !48
  store double %2, ptr %9, align 8, !tbaa !47
  %48 = getelementptr inbounds nuw i8, ptr %0, i64 584
  %49 = load ptr, ptr %48, align 8, !tbaa !59
  tail call void @N_VScale(double noundef 1.000000e+00, ptr noundef %49, ptr noundef %38) #14
  %50 = add nsw i32 %6, 1
  %51 = tail call i32 @llvm.smin.i32(i32 %50, i32 %7)
  %52 = load ptr, ptr %1, align 8, !tbaa !17
  %53 = getelementptr inbounds nuw i8, ptr %52, i64 24
  store i32 %51, ptr %53, align 8, !tbaa !57
  br label %54

54:                                               ; preds = %._crit_edge, %._crit_edge55
  ret i32 0
}